target datalayout = "e-m:e-p270:32:32-p271:32:32-p272:64:64-i64:64-i128:128-f80:128-n8:16:32:64-S128"
target triple = "x86_64-pc-linux-gnu"

%"struct.rocksdb::TraceOptions" = type <{ i64, i64, i64, i8, [7 x i8] }>
%"class.rocksdb::IOTracer" = type <{ %"struct.rocksdb::TraceOptions", %"class.rocksdb::InstrumentedMutex", %"struct.std::atomic", i8, [7 x i8] }>
%"class.rocksdb::InstrumentedMutex" = type <{ %"class.rocksdb::port::Mutex", ptr, ptr, i32, [4 x i8] }>
%"class.rocksdb::port::Mutex" = type { %union.pthread_mutex_t }
%union.pthread_mutex_t = type { %struct.__pthread_mutex_s }
%struct.__pthread_mutex_s = type { i32, i32, i32, i32, i32, i16, i16, %struct.__pthread_internal_list }
%struct.__pthread_internal_list = type { ptr, ptr }
%"struct.std::atomic" = type { %"struct.std::__atomic_base" }
%"struct.std::__atomic_base" = type { ptr }

; Function Attrs: noinline noreturn nounwind uwtable
define linkonce_odr hidden void @__clang_call_terminate(ptr noundef %0) #10 comdat {
  %2 = call ptr @__cxa_begin_catch(ptr %0) #4
  call void @_ZSt9terminatev() #18
  unreachable
}

; Function Attrs: mustprogress nounwind uwtable
define linkonce_odr noundef i32 @_ZStanSt12memory_orderSt23__memory_order_modifier(i32 noundef %0, i32 noundef %1) #3 comdat {
  %3 = alloca i32, align 4
  %4 = alloca i32, align 4
  store i32 %0, ptr %3, align 4, !tbaa !168
  store i32 %1, ptr %4, align 4, !tbaa !257
  %5 = load i32, ptr %3, align 4, !tbaa !168
  %6 = load i32, ptr %4, align 4, !tbaa !257
  %7 = and i32 %5, %6
  ret i32 %7
}

; Function Attrs: alwaysinline mustprogress nounwind uwtable
define linkonce_odr void @_ZNSt13__atomic_baseIPN7rocksdb13IOTraceWriterEE5storeES2_St12memory_order(ptr noundef nonnull align 8 dereferenceable(8) %0, ptr noundef %1, i32 noundef %2) #16 comdat align 2 personality ptr @__gxx_personality_v0 {
  %4 = alloca ptr, align 8
  %5 = alloca ptr, align 8
  %6 = alloca i32, align 4
  %7 = alloca i32, align 4
  %8 = alloca ptr, align 8
  store ptr %0, ptr %4, align 8, !tbaa !255
  store ptr %1, ptr %5, align 8, !tbaa !50
  store i32 %2, ptr %6, align 4, !tbaa !168
  %9 = load ptr, ptr %4, align 8
  call void @llvm.lifetime.start.p0(i64 4, ptr %7) #4
  %10 = load i32, ptr %6, align 4, !tbaa !168
  %11 = invoke noundef i32 @_ZStanSt12memory_orderSt23__memory_order_modifier(i32 noundef %10, i32 noundef 65535)
          to label %12 unwind label %32

12:                                               ; preds = %3
  store i32 %11, ptr %7, align 4, !tbaa !168
  br label %13

13:                                               ; preds = %12
  br label %14

14:                                               ; preds = %13
  br label %15

15:                                               ; preds = %14
  br label %16

16:                                               ; preds = %15
  br label %17

17:                                               ; preds = %16
  br label %18

18:                                               ; preds = %17
  br label %19

19:                                               ; preds = %18
  br label %20

20:                                               ; preds = %19
  br label %21

21:                                               ; preds = %20
  %22 = getelementptr inbounds nuw %"struct.std::__atomic_base", ptr %9, i32 0, i32 0
  %23 = load i32, ptr %6, align 4, !tbaa !168
  %24 = load ptr, ptr %5, align 8, !tbaa !50
  store ptr %24, ptr %8, align 8, !tbaa !50
  switch i32 %23, label %25 [
    i32 3, label %27
    i32 5, label %29
  ]

25:                                               ; preds = %21
  %26 = load i64, ptr %8, align 8
  store atomic i64 %26, ptr %22 monotonic, align 8
  br label %31

27:                                               ; preds = %21
  %28 = load i64, ptr %8, align 8
  store atomic i64 %28, ptr %22 release, align 8
  br label %31

29:                                               ; preds = %21
  %30 = load i64, ptr %8, align 8
  store atomic i64 %30, ptr %22 seq_cst, align 8
  br label %31

31:                                               ; preds = %29, %27, %25
  call void @llvm.lifetime.end.p0(i64 4, ptr %7) #4
  ret void

32:                                               ; preds = %3
  %33 = landingpad { ptr, i32 }
          catch ptr null
  %34 = extractvalue { ptr, i32 } %33, 0
  call void @__clang_call_terminate(ptr %34) #18
  unreachable
}

; Function Attrs: mustprogress nounwind uwtable
define linkonce_odr void @_ZNSt6atomicIPN7rocksdb13IOTraceWriterEE5storeES2_St12memory_order(ptr noundef nonnull align 8 dereferenceable(8) %0, ptr noundef %1, i32 noundef %2) #3 comdat align 2 {
  %4 = alloca ptr, align 8
  %5 = alloca ptr, align 8
  %6 = alloca i32, align 4
  store ptr %0, ptr %4, align 8, !tbaa !166
  store ptr %1, ptr %5, align 8, !tbaa !50
  store i32 %2, ptr %6, align 4, !tbaa !168
  %7 = load ptr, ptr %4, align 8
  %8 = getelementptr inbounds nuw %"struct.std::atomic", ptr %7, i32 0, i32 0
  %9 = load ptr, ptr %5, align 8, !tbaa !50
  %10 = load i32, ptr %6, align 4, !tbaa !168
  call void @_ZNSt13__atomic_baseIPN7rocksdb13IOTraceWriterEE5storeES2_St12memory_order(ptr noundef nonnull align 8 dereferenceable(8) %8, ptr noundef %9, i32 noundef %10) #4
  ret void
}

; Function Attrs: mustprogress uwtable
define linkonce_odr void @_ZN7rocksdb17InstrumentedMutexC2Eb(ptr noundef nonnull align 8 dereferenceable(60) %0, i1 noundef zeroext %1) unnamed_addr #5 comdat align 2 {
  %3 = alloca ptr, align 8
  %4 = alloca i8, align 1
  store ptr %0, ptr %3, align 8, !tbaa !161
  %5 = zext i1 %1 to i8
  store i8 %5, ptr %4, align 1, !tbaa !70
  %6 = load ptr, ptr %3, align 8
  %7 = getelementptr inbounds nuw %"class.rocksdb::InstrumentedMutex", ptr %6, i32 0, i32 0
  %8 = load i8, ptr %4, align 1, !tbaa !70, !range !134, !noundef !135
  %9 = trunc i8 %8 to i1
  call void @_ZN7rocksdb4port5MutexC1Eb(ptr noundef nonnull align 8 dereferenceable(40) %7, i1 noundef zeroext %9)
  %10 = getelementptr inbounds nuw %"class.rocksdb::InstrumentedMutex", ptr %6, i32 0, i32 1
  store ptr null, ptr %10, align 8, !tbaa !163
  %11 = getelementptr inbounds nuw %"class.rocksdb::InstrumentedMutex", ptr %6, i32 0, i32 2
  store ptr null, ptr %11, align 8, !tbaa !164
  %12 = getelementptr inbounds nuw %"class.rocksdb::InstrumentedMutex", ptr %6, i32 0, i32 3
  store i32 0, ptr %12, align 8, !tbaa !165
  ret void
}

; Function Attrs: inlinehint mustprogress nounwind uwtable
define linkonce_odr void @_ZN7rocksdb12TraceOptionsC2Ev(ptr noundef nonnull align 8 dereferenceable(25) %0) unnamed_addr #1 comdat align 2 {
  %2 = alloca ptr, align 8
  store ptr %0, ptr %2, align 8, !tbaa !54
  %3 = load ptr, ptr %2, align 8
  %4 = getelementptr inbounds nuw %"struct.rocksdb::TraceOptions", ptr %3, i32 0, i32 0
  store i64 68719476736, ptr %4, align 8, !tbaa !157
  %5 = getelementptr inbounds nuw %"struct.rocksdb::TraceOptions", ptr %3, i32 0, i32 1
  store i64 1, ptr %5, align 8, !tbaa !158
  %6 = getelementptr inbounds nuw %"struct.rocksdb::TraceOptions", ptr %3, i32 0, i32 2
  store i64 0, ptr %6, align 8, !tbaa !159
  %7 = getelementptr inbounds nuw %"struct.rocksdb::TraceOptions", ptr %3, i32 0, i32 3
  store i8 0, ptr %7, align 8, !tbaa !160
  ret void
}

; Function Attrs: mustprogress uwtable
define void @_ZN7rocksdb8IOTracerC2Ev(ptr noundef nonnull align 8 dereferenceable(105) %0) unnamed_addr #5 align 2 {
  %2 = alloca ptr, align 8
  store ptr %0, ptr %2, align 8, !tbaa !148
  %3 = load ptr, ptr %2, align 8
  %4 = getelementptr inbounds nuw %"class.rocksdb::IOTracer", ptr %3, i32 0, i32 0
  call void @_ZN7rocksdb12TraceOptionsC2Ev(ptr noundef nonnull align 8 dereferenceable(25) %4) #4
  %5 = getelementptr inbounds nuw %"class.rocksdb::IOTracer", ptr %3, i32 0, i32 1
  call void @_ZN7rocksdb17InstrumentedMutexC2Eb(ptr noundef nonnull align 8 dereferenceable(60) %5, i1 noundef zeroext false)
  %6 = getelementptr inbounds nuw %"class.rocksdb::IOTracer", ptr %3, i32 0, i32 3
  store i8 0, ptr %6, align 8, !tbaa !150
  %7 = getelementptr inbounds nuw %"class.rocksdb::IOTracer", ptr %3, i32 0, i32 2
  call void @_ZNSt6atomicIPN7rocksdb13IOTraceWriterEE5storeES2_St12memory_order(ptr noundef nonnull align 8 dereferenceable(8) %7, ptr noundef null, i32 noundef 5) #4
  ret void
}