; Function Attrs: mustprogress uwtable
define void @_ZN7rocksdb8IOTracerC2Ev(ptr noundef nonnull align 8 dereferenceable(105) initializes((0, 25)) %0) unnamed_addr #6 align 2 personality ptr @__gxx_personality_v0 {
  store i64 68719476736, ptr %0, align 8, !tbaa !109
  %2 = getelementptr inbounds nuw i8, ptr %0, i64 8
  store i64 1, ptr %2, align 8, !tbaa !110
  %3 = getelementptr inbounds nuw i8, ptr %0, i64 16
  store i64 0, ptr %3, align 8, !tbaa !111
  %4 = getelementptr inbounds nuw i8, ptr %0, i64 24
  store i8 0, ptr %4, align 8, !tbaa !112
  %5 = getelementptr inbounds nuw i8, ptr %0, i64 32
  tail call void @_ZN7rocksdb4port5MutexC1Eb(ptr noundef nonnull align 8 dereferenceable(60) %5, i1 noundef zeroext false)
  %6 = getelementptr inbounds nuw i8, ptr %0, i64 72
  tail call void @llvm.memset.p0.i64(ptr noundef nonnull align 8 dereferenceable(20) %6, i8 0, i64 20, i1 false)
  %7 = getelementptr inbounds nuw i8, ptr %0, i64 104
  store i8 0, ptr %7, align 8, !tbaa !113
  %8 = getelementptr inbounds nuw i8, ptr %0, i64 96
  store atomic i64 0, ptr %8 seq_cst, align 8
  ret void
}